target datalayout = "e-m:e-p270:32:32-p271:32:32-p272:64:64-i64:64-i128:128-f80:128-n8:16:32:64-S128"
target triple = "x86_64-unknown-linux-gnu"

%"struct.facebook::velox::StlAllocator" = type { ptr }
%"struct.facebook::velox::StlAllocator.2" = type { ptr }
%"class.facebook::velox::common::hll::DenseHll" = type { i8, i8, i32, %"class.std::vector", i16, %"class.std::vector.0", %"class.std::vector" }
%"class.std::vector.0" = type { %"struct.std::_Vector_base.1" }
%"struct.std::_Vector_base.1" = type { %"struct.std::_Vector_base<unsigned short, facebook::velox::StlAllocator<unsigned short>>::_Vector_impl" }
%"struct.std::_Vector_base<unsigned short, facebook::velox::StlAllocator<unsigned short>>::_Vector_impl" = type { %"struct.facebook::velox::StlAllocator.2", %"struct.std::_Vector_base<unsigned short, facebook::velox::StlAllocator<unsigned short>>::_Vector_impl_data" }
%"struct.std::_Vector_base<unsigned short, facebook::velox::StlAllocator<unsigned short>>::_Vector_impl_data" = type { ptr, ptr, ptr }
%"class.std::vector" = type { %"struct.std::_Vector_base" }
%"struct.std::_Vector_base" = type { %"struct.std::_Vector_base<signed char, facebook::velox::StlAllocator<signed char>>::_Vector_impl" }
%"struct.std::_Vector_base<signed char, facebook::velox::StlAllocator<signed char>>::_Vector_impl" = type { %"struct.facebook::velox::StlAllocator", %"struct.std::_Vector_base<signed char, facebook::velox::StlAllocator<signed char>>::_Vector_impl_data" }
%"struct.std::_Vector_base<signed char, facebook::velox::StlAllocator<signed char>>::_Vector_impl_data" = type { ptr, ptr, ptr }
%"struct.facebook::velox::common::hll::(anonymous namespace)::DenseHllView" = type { i8, i8, ptr, i16, ptr, ptr }

; Function Attrs: mustprogress nounwind uwtable
define linkonce_odr noundef ptr @_ZNKSt6vectorItN8facebook5velox12StlAllocatorItEEE11_M_data_ptrItEEPT_S7_(ptr noundef nonnull align 8 dereferenceable(32) %this, ptr noundef %__ptr) #1 comdat align 2 {
entry:
  %this.addr = alloca ptr, align 8
  %__ptr.addr = alloca ptr, align 8
  store ptr %this, ptr %this.addr, align 8
  store ptr %__ptr, ptr %__ptr.addr, align 8
  %0 = load ptr, ptr %__ptr.addr, align 8
  ret ptr %0
}

; Function Attrs: mustprogress nounwind uwtable
define linkonce_odr noundef ptr @_ZNKSt6vectorIaN8facebook5velox12StlAllocatorIaEEE11_M_data_ptrIaEEPT_S7_(ptr noundef nonnull align 8 dereferenceable(32) %this, ptr noundef %__ptr) #1 comdat align 2 {
entry:
  %this.addr = alloca ptr, align 8
  %__ptr.addr = alloca ptr, align 8
  store ptr %this, ptr %this.addr, align 8
  store ptr %__ptr, ptr %__ptr.addr, align 8
  %0 = load ptr, ptr %__ptr.addr, align 8
  ret ptr %0
}

; Function Attrs: mustprogress nounwind uwtable
define linkonce_odr noundef ptr @_ZNKSt6vectorItN8facebook5velox12StlAllocatorItEEE4dataEv(ptr noundef nonnull align 8 dereferenceable(32) %this) #1 comdat align 2 {
entry:
  %this.addr = alloca ptr, align 8
  store ptr %this, ptr %this.addr, align 8
  %this1 = load ptr, ptr %this.addr, align 8
  %_M_impl = getelementptr inbounds %"struct.std::_Vector_base.1", ptr %this1, i32 0, i32 0
  %add.ptr = getelementptr inbounds i8, ptr %_M_impl, i64 8
  %_M_start = getelementptr inbounds %"struct.std::_Vector_base<unsigned short, facebook::velox::StlAllocator<unsigned short>>::_Vector_impl_data", ptr %add.ptr, i32 0, i32 0
  %0 = load ptr, ptr %_M_start, align 8
  %call = call noundef ptr @_ZNKSt6vectorItN8facebook5velox12StlAllocatorItEEE11_M_data_ptrItEEPT_S7_(ptr noundef nonnull align 8 dereferenceable(32) %this1, ptr noundef %0) #9
  ret ptr %call
}

; Function Attrs: mustprogress nounwind uwtable
define linkonce_odr noundef ptr @_ZNKSt6vectorIaN8facebook5velox12StlAllocatorIaEEE4dataEv(ptr noundef nonnull align 8 dereferenceable(32) %this) #1 comdat align 2 {
entry:
  %this.addr = alloca ptr, align 8
  store ptr %this, ptr %this.addr, align 8
  %this1 = load ptr, ptr %this.addr, align 8
  %_M_impl = getelementptr inbounds %"struct.std::_Vector_base", ptr %this1, i32 0, i32 0
  %add.ptr = getelementptr inbounds i8, ptr %_M_impl, i64 8
  %_M_start = getelementptr inbounds %"struct.std::_Vector_base<signed char, facebook::velox::StlAllocator<signed char>>::_Vector_impl_data", ptr %add.ptr, i32 0, i32 0
  %0 = load ptr, ptr %_M_start, align 8
  %call = call noundef ptr @_ZNKSt6vectorIaN8facebook5velox12StlAllocatorIaEEE11_M_data_ptrIaEEPT_S7_(ptr noundef nonnull align 8 dereferenceable(32) %this1, ptr noundef %0) #9
  ret ptr %call
}

; Function Attrs: mustprogress uwtable
define noundef i64 @_ZNK8facebook5velox6common3hll8DenseHll11cardinalityEv(ptr noundef nonnull align 8 dereferenceable(112) %this) #0 align 2 {
entry:
  %this.addr = alloca ptr, align 8
  %hll = alloca %"struct.facebook::velox::common::hll::(anonymous namespace)::DenseHllView", align 8
  store ptr %this, ptr %this.addr, align 8
  %this1 = load ptr, ptr %this.addr, align 8
  %indexBitLength = getelementptr inbounds %"struct.facebook::velox::common::hll::(anonymous namespace)::DenseHllView", ptr %hll, i32 0, i32 0
  %indexBitLength_ = getelementptr inbounds %"class.facebook::velox::common::hll::DenseHll", ptr %this1, i32 0, i32 0
  %0 = load i8, ptr %indexBitLength_, align 8
  store i8 %0, ptr %indexBitLength, align 8
  %baseline = getelementptr inbounds %"struct.facebook::velox::common::hll::(anonymous namespace)::DenseHllView", ptr %hll, i32 0, i32 1
  %baseline_ = getelementptr inbounds %"class.facebook::velox::common::hll::DenseHll", ptr %this1, i32 0, i32 1
  %1 = load i8, ptr %baseline_, align 1
  store i8 %1, ptr %baseline, align 1
  %deltas = getelementptr inbounds %"struct.facebook::velox::common::hll::(anonymous namespace)::DenseHllView", ptr %hll, i32 0, i32 2
  %deltas_ = getelementptr inbounds %"class.facebook::velox::common::hll::DenseHll", ptr %this1, i32 0, i32 3
  %call = call noundef ptr @_ZNKSt6vectorIaN8facebook5velox12StlAllocatorIaEEE4dataEv(ptr noundef nonnull align 8 dereferenceable(32) %deltas_) #9
  store ptr %call, ptr %deltas, align 8
  %overflows = getelementptr inbounds %"struct.facebook::velox::common::hll::(anonymous namespace)::DenseHllView", ptr %hll, i32 0, i32 3
  %overflows_ = getelementptr inbounds %"class.facebook::velox::common::hll::DenseHll", ptr %this1, i32 0, i32 4
  %2 = load i16, ptr %overflows_, align 8
  store i16 %2, ptr %overflows, align 8
  %overflowBuckets = getelementptr inbounds %"struct.facebook::velox::common::hll::(anonymous namespace)::DenseHllView", ptr %hll, i32 0, i32 4
  %overflowBuckets_ = getelementptr inbounds %"class.facebook::velox::common::hll::DenseHll", ptr %this1, i32 0, i32 5
  %call2 = call noundef ptr @_ZNKSt6vectorItN8facebook5velox12StlAllocatorItEEE4dataEv(ptr noundef nonnull align 8 dereferenceable(32) %overflowBuckets_) #9
  store ptr %call2, ptr %overflowBuckets, align 8
  %overflowValues = getelementptr inbounds %"struct.facebook::velox::common::hll::(anonymous namespace)::DenseHllView", ptr %hll, i32 0, i32 5
  %overflowValues_ = getelementptr inbounds %"class.facebook::velox::common::hll::DenseHll", ptr %this1, i32 0, i32 6
  %call3 = call noundef ptr @_ZNKSt6vectorIaN8facebook5velox12StlAllocatorIaEEE4dataEv(ptr noundef nonnull align 8 dereferenceable(32) %overflowValues_) #9
  store ptr %call3, ptr %overflowValues, align 8
  %call4 = call noundef i64 @_ZN8facebook5velox6common3hll12_GLOBAL__N_115cardinalityImplERKNS3_12DenseHllViewE(ptr noundef nonnull align 8 dereferenceable(40) %hll)
  ret i64 %call4
}