; Function Attrs: mustprogress nofree nounwind memory(readwrite, inaccessiblemem: write) uwtable
define noundef i64 @_ZNK8facebook5velox6common3hll8DenseHll11cardinalityEv(ptr noundef nonnull readonly align 8 captures(none) dereferenceable(112) %this) local_unnamed_addr #6 align 2 {
entry:
  %hll = alloca %"struct.facebook::velox::common::hll::(anonymous namespace)::DenseHllView", align 8
  %0 = load i8, ptr %this, align 8
  store i8 %0, ptr %hll, align 8
  %baseline = getelementptr inbounds nuw i8, ptr %hll, i64 1
  %baseline_ = getelementptr inbounds nuw i8, ptr %this, i64 1
  %1 = load i8, ptr %baseline_, align 1
  store i8 %1, ptr %baseline, align 1
  %deltas = getelementptr inbounds nuw i8, ptr %hll, i64 8
  %add.ptr.i = getelementptr inbounds nuw i8, ptr %this, i64 16
  %2 = load ptr, ptr %add.ptr.i, align 8
  store ptr %2, ptr %deltas, align 8
  %overflows = getelementptr inbounds nuw i8, ptr %hll, i64 16
  %overflows_ = getelementptr inbounds nuw i8, ptr %this, i64 40
  %3 = load i16, ptr %overflows_, align 8
  store i16 %3, ptr %overflows, align 8
  %overflowBuckets = getelementptr inbounds nuw i8, ptr %hll, i64 24
  %add.ptr.i1 = getelementptr inbounds nuw i8, ptr %this, i64 56
  %4 = load ptr, ptr %add.ptr.i1, align 8
  store ptr %4, ptr %overflowBuckets, align 8
  %overflowValues = getelementptr inbounds nuw i8, ptr %hll, i64 32
  %add.ptr.i2 = getelementptr inbounds nuw i8, ptr %this, i64 88
  %5 = load ptr, ptr %add.ptr.i2, align 8
  store ptr %5, ptr %overflowValues, align 8
  %call4 = call fastcc noundef i64 @_ZN8facebook5velox6common3hll12_GLOBAL__N_115cardinalityImplERKNS3_12DenseHllViewE(ptr noundef nonnull align 8 dereferenceable(40) %hll)
  ret i64 %call4
}